; Function Attrs: nofree norecurse nosync nounwind memory(read, argmem: readwrite, inaccessiblemem: none) uwtable
define dso_local void @sema_analyse_pass_top(ptr noundef %0) local_unnamed_addr #0 {
  br label %2

2:                                                ; preds = %2, %1
  %.0 = phi ptr [ %0, %1 ], [ %4, %2 ]
  %3 = getelementptr inbounds i8, ptr %.0, i64 72
  %4 = load ptr, ptr %3, align 8
  %.not = icmp eq ptr %4, null
  br i1 %.not, label %5, label %2, !llvm.loop !9

5:                                                ; preds = %2
  %6 = getelementptr inbounds i8, ptr %0, i64 80
  store ptr %.0, ptr %6, align 8
  ret void
}